target datalayout = "e-m:e-p270:32:32-p271:32:32-p272:64:64-i64:64-i128:128-f80:128-n8:16:32:64-S128"
target triple = "x86_64-pc-linux-gnu"

%struct._mq_parm_t = type { i32, i32, i32, i32, i32, i32, i32, i32, i32, i32, i32, i32, i32, i8, i8, i8, %struct._mq_ccsid_t, %struct._mq_ccsid_t, %struct._mq_ccsid_t, %struct._mq_ccsid_t, %struct._mq_ccsid_t, %struct._mq_ccsid_t, %struct._mq_ccsid_t, [8 x i8], i32, i32, i32 }
%struct._mq_ccsid_t = type { i32, i32 }

@hf_mq_fcmi_StructID = internal global i32 0, align 4
@hf_mq_fcmi_unknown = internal global i32 0, align 4
@ett_mq_fcmi = internal global i32 0, align 4
@.str.1896 = private unnamed_addr constant [5 x i8] c"FCMI\00", align 1

; Function Attrs: null_pointer_is_valid sspstrong uwtable
define internal i32 @dissect_mq_fcmi(ptr noundef %0, ptr noundef %1, i32 noundef %2, ptr noundef %3) #0 {
  %5 = alloca ptr, align 8
  %6 = alloca ptr, align 8
  %7 = alloca i32, align 4
  %8 = alloca ptr, align 8
  %9 = alloca i32, align 4
  %10 = alloca ptr, align 8
  store ptr %0, ptr %5, align 8
  store ptr %1, ptr %6, align 8
  store i32 %2, ptr %7, align 4
  store ptr %3, ptr %8, align 8
  call void @llvm.lifetime.start.p0(i64 4, ptr %9) #9
  store i32 0, ptr %9, align 4
  %11 = load ptr, ptr %5, align 8
  %12 = load i32, ptr %7, align 4
  %13 = call i32 @tvb_reported_length_remaining(ptr noundef %11, i32 noundef %12)
  %14 = icmp sge i32 %13, 4
  br i1 %14, label %15, label %19

15:                                               ; preds = %4
  %16 = load ptr, ptr %5, align 8
  %17 = load i32, ptr %7, align 4
  %18 = call i32 @tvb_get_ntohl(ptr noundef %16, i32 noundef %17)
  br label %20

19:                                               ; preds = %4
  br label %20

20:                                               ; preds = %19, %15
  %21 = phi i32 [ %18, %15 ], [ 0, %19 ]
  %22 = load ptr, ptr %8, align 8
  %23 = getelementptr inbounds nuw %struct._mq_parm_t, ptr %22, i32 0, i32 2
  store i32 %21, ptr %23, align 4
  %24 = load ptr, ptr %8, align 8
  %25 = getelementptr inbounds nuw %struct._mq_parm_t, ptr %24, i32 0, i32 2
  %26 = load i32, ptr %25, align 4
  %27 = icmp eq i32 %26, 1178815817
  br i1 %27, label %33, label %28

28:                                               ; preds = %20
  %29 = load ptr, ptr %8, align 8
  %30 = getelementptr inbounds nuw %struct._mq_parm_t, ptr %29, i32 0, i32 2
  %31 = load i32, ptr %30, align 4
  %32 = icmp eq i32 %31, -960244535
  br i1 %32, label %33, label %67

33:                                               ; preds = %28, %20
  store i32 8, ptr %9, align 4
  %34 = load i32, ptr %9, align 4
  %35 = icmp ne i32 %34, 0
  br i1 %35, label %36, label %66

36:                                               ; preds = %33
  %37 = load ptr, ptr %5, align 8
  %38 = load i32, ptr %7, align 4
  %39 = call i32 @tvb_reported_length_remaining(ptr noundef %37, i32 noundef %38)
  %40 = load i32, ptr %9, align 4
  %41 = icmp sge i32 %39, %40
  br i1 %41, label %42, label %66

42:                                               ; preds = %36
  call void @llvm.lifetime.start.p0(i64 8, ptr %10) #9
  %43 = load ptr, ptr %6, align 8
  %44 = load ptr, ptr %5, align 8
  %45 = load i32, ptr %7, align 4
  %46 = load i32, ptr %9, align 4
  %47 = load i32, ptr @ett_mq_fcmi, align 4
  %48 = call ptr @proto_tree_add_subtree(ptr noundef %43, ptr noundef %44, i32 noundef %45, i32 noundef %46, i32 noundef %47, ptr noundef null, ptr noundef @.str.1896)
  store ptr %48, ptr %10, align 8
  %49 = load ptr, ptr %10, align 8
  %50 = load i32, ptr @hf_mq_fcmi_StructID, align 4
  %51 = load ptr, ptr %5, align 8
  %52 = load i32, ptr %7, align 4
  %53 = load ptr, ptr %8, align 8
  %54 = getelementptr inbounds nuw %struct._mq_parm_t, ptr %53, i32 0, i32 4
  %55 = load i32, ptr %54, align 4
  %56 = call ptr @proto_tree_add_item(ptr noundef %49, i32 noundef %50, ptr noundef %51, i32 noundef %52, i32 noundef 4, i32 noundef %55)
  %57 = load ptr, ptr %10, align 8
  %58 = load i32, ptr @hf_mq_fcmi_unknown, align 4
  %59 = load ptr, ptr %5, align 8
  %60 = load i32, ptr %7, align 4
  %61 = add i32 %60, 4
  %62 = load ptr, ptr %8, align 8
  %63 = getelementptr inbounds nuw %struct._mq_parm_t, ptr %62, i32 0, i32 3
  %64 = load i32, ptr %63, align 4
  %65 = call ptr @proto_tree_add_item(ptr noundef %57, i32 noundef %58, ptr noundef %59, i32 noundef %61, i32 noundef 4, i32 noundef %64)
  call void @llvm.lifetime.end.p0(i64 8, ptr %10) #9
  br label %66

66:                                               ; preds = %42, %36, %33
  br label %67

67:                                               ; preds = %66, %28
  %68 = load i32, ptr %9, align 4
  call void @llvm.lifetime.end.p0(i64 4, ptr %9) #9
  ret i32 %68
}