; Function Attrs: null_pointer_is_valid sspstrong uwtable
define internal fastcc range(i32 0, 9) i32 @dissect_mq_fcmi(ptr noundef %0, ptr noundef %1, i32 noundef %2, ptr noundef captures(none) initializes((8, 12)) %3) unnamed_addr #0 {
  %5 = tail call i32 @tvb_reported_length_remaining(ptr noundef %0, i32 noundef %2)
  %6 = icmp sgt i32 %5, 3
  br i1 %6, label %8, label %.thread

.thread:                                          ; preds = %4
  %7 = getelementptr inbounds nuw i8, ptr %3, i64 8
  store i32 0, ptr %7, align 4
  br label %26

8:                                                ; preds = %4
  %9 = tail call i32 @tvb_get_ntohl(ptr noundef %0, i32 noundef %2)
  %10 = getelementptr inbounds nuw i8, ptr %3, i64 8
  store i32 %9, ptr %10, align 4
  switch i32 %9, label %26 [
    i32 1178815817, label %11
    i32 -960244535, label %11
  ]

11:                                               ; preds = %8, %8
  %12 = tail call i32 @tvb_reported_length_remaining(ptr noundef %0, i32 noundef %2)
  %13 = icmp sgt i32 %12, 7
  br i1 %13, label %14, label %26

14:                                               ; preds = %11
  %15 = load i32, ptr @ett_mq_fcmi, align 4
  %16 = tail call ptr @proto_tree_add_subtree(ptr noundef %1, ptr noundef %0, i32 noundef %2, i32 noundef 8, i32 noundef %15, ptr noundef null, ptr noundef nonnull @.str.1896)
  %17 = load i32, ptr @hf_mq_fcmi_StructID, align 4
  %18 = getelementptr inbounds nuw i8, ptr %3, i64 16
  %19 = load i32, ptr %18, align 4
  %20 = tail call ptr @proto_tree_add_item(ptr noundef %16, i32 noundef %17, ptr noundef %0, i32 noundef %2, i32 noundef 4, i32 noundef %19)
  %21 = load i32, ptr @hf_mq_fcmi_unknown, align 4
  %22 = add i32 %2, 4
  %23 = getelementptr inbounds nuw i8, ptr %3, i64 12
  %24 = load i32, ptr %23, align 4
  %25 = tail call ptr @proto_tree_add_item(ptr noundef %16, i32 noundef %21, ptr noundef %0, i32 noundef %22, i32 noundef 4, i32 noundef %24)
  br label %26

26:                                               ; preds = %.thread, %8, %11, %14
  %.0 = phi i32 [ 8, %14 ], [ 8, %11 ], [ 0, %8 ], [ 0, %.thread ]
  ret i32 %.0
}